target datalayout = "e-m:e-p270:32:32-p271:32:32-p272:64:64-i64:64-i128:128-f80:128-n8:16:32:64-S128"
target triple = "x86_64-pc-linux-gnu"

%"class.cv::Mat" = type { i32, i32, i32, i32, ptr, ptr, ptr, ptr, ptr, ptr, %"struct.cv::MatSize", %"struct.cv::MatStep" }
%"struct.cv::MatSize" = type { ptr }
%"struct.cv::MatStep" = type { ptr, [2 x i64] }
%"class.std::vector.8" = type { %"struct.std::_Vector_base.9" }
%"struct.std::_Vector_base.9" = type { %"struct.std::_Vector_base<cv::Vec<unsigned char, 3>, std::allocator<cv::Vec<unsigned char, 3>>>::_Vector_impl" }
%"struct.std::_Vector_base<cv::Vec<unsigned char, 3>, std::allocator<cv::Vec<unsigned char, 3>>>::_Vector_impl" = type { %"struct.std::_Vector_base<cv::Vec<unsigned char, 3>, std::allocator<cv::Vec<unsigned char, 3>>>::_Vector_impl_data" }
%"struct.std::_Vector_base<cv::Vec<unsigned char, 3>, std::allocator<cv::Vec<unsigned char, 3>>>::_Vector_impl_data" = type { ptr, ptr, ptr }
%"class.cv::_InputArray" = type { i32, ptr, %"class.cv::Size_" }
%"class.cv::Size_" = type { i32, i32 }
%"class.cv::Vec.13" = type { %"class.cv::Matx.14" }
%"class.cv::Matx.14" = type { [3 x i8] }
%"class.std::__shared_count" = type { ptr }
%"class.std::__shared_ptr.22" = type { ptr, %"class.std::__shared_count" }

@img = hidden global %"class.cv::Mat" zeroinitializer, align 8
@classColors = hidden global %"class.std::vector.8" zeroinitializer, align 8

; Function Attrs: inlinehint mustprogress nounwind uwtable
define linkonce_odr hidden void @_ZN2cv11_InputArray4initEiPKv(ptr noundef nonnull align 8 dereferenceable(24) %0, i32 noundef %1, ptr noundef %2) #8 comdat align 2 {
  %4 = alloca ptr, align 8
  %5 = alloca i32, align 4
  %6 = alloca ptr, align 8
  store ptr %0, ptr %4, align 8, !tbaa !55
  store i32 %1, ptr %5, align 4, !tbaa !46
  store ptr %2, ptr %6, align 8, !tbaa !54
  %7 = load ptr, ptr %4, align 8
  %8 = load i32, ptr %5, align 4, !tbaa !46
  %9 = getelementptr inbounds nuw %"class.cv::_InputArray", ptr %7, i32 0, i32 0
  store i32 %8, ptr %9, align 8, !tbaa !111
  %10 = load ptr, ptr %6, align 8, !tbaa !54
  %11 = getelementptr inbounds nuw %"class.cv::_InputArray", ptr %7, i32 0, i32 1
  store ptr %10, ptr %11, align 8, !tbaa !113
  ret void
}

; Function Attrs: inlinehint mustprogress nounwind uwtable
define linkonce_odr hidden void @_ZN2cv5Size_IiEC2Ev(ptr noundef nonnull align 4 dereferenceable(8) %0) unnamed_addr #8 comdat align 2 {
  %2 = alloca ptr, align 8
  store ptr %0, ptr %2, align 8, !tbaa !106
  %3 = load ptr, ptr %2, align 8
  %4 = getelementptr inbounds nuw %"class.cv::Size_", ptr %3, i32 0, i32 0
  store i32 0, ptr %4, align 4, !tbaa !108
  %5 = getelementptr inbounds nuw %"class.cv::Size_", ptr %3, i32 0, i32 1
  store i32 0, ptr %5, align 4, !tbaa !110
  ret void
}

; Function Attrs: mustprogress nounwind uwtable
define linkonce_odr hidden noundef ptr @_ZNKSt12__shared_ptrIN2cv2ml9StatModelELN9__gnu_cxx12_Lock_policyE2EE3getEv(ptr noundef nonnull align 8 dereferenceable(16) %0) #6 comdat align 2 {
  %2 = alloca ptr, align 8
  store ptr %0, ptr %2, align 8, !tbaa !154
  %3 = load ptr, ptr %2, align 8
  %4 = getelementptr inbounds nuw %"class.std::__shared_ptr.22", ptr %3, i32 0, i32 0
  %5 = load ptr, ptr %4, align 8, !tbaa !201
  ret ptr %5
}

; Function Attrs: inlinehint mustprogress nounwind uwtable
define linkonce_odr hidden noundef zeroext i1 @_ZNK2cv3Mat12isContinuousEv(ptr noundef nonnull align 8 dereferenceable(96) %0) #8 comdat align 2 {
  %2 = alloca ptr, align 8
  store ptr %0, ptr %2, align 8, !tbaa !57
  %3 = load ptr, ptr %2, align 8
  %4 = getelementptr inbounds nuw %"class.cv::Mat", ptr %3, i32 0, i32 0
  %5 = load i32, ptr %4, align 8, !tbaa !171
  %6 = and i32 %5, 16384
  %7 = icmp ne i32 %6, 0
  ret i1 %7
}

; Function Attrs: inlinehint mustprogress nounwind uwtable
define linkonce_odr hidden noundef nonnull align 1 dereferenceable(3) ptr @_ZN2cv3Mat2atINS_3VecIhLi3EEEEERT_ii(ptr noundef nonnull align 8 dereferenceable(96) %0, i32 noundef %1, i32 noundef %2) #8 comdat align 2 {
  %4 = alloca ptr, align 8
  %5 = alloca i32, align 4
  %6 = alloca i32, align 4
  store ptr %0, ptr %4, align 8, !tbaa !57
  store i32 %1, ptr %5, align 4, !tbaa !46
  store i32 %2, ptr %6, align 4, !tbaa !46
  %7 = load ptr, ptr %4, align 8
  %8 = getelementptr inbounds nuw %"class.cv::Mat", ptr %7, i32 0, i32 4
  %9 = load ptr, ptr %8, align 8, !tbaa !78
  %10 = getelementptr inbounds nuw %"class.cv::Mat", ptr %7, i32 0, i32 11
  %11 = getelementptr inbounds nuw %"struct.cv::MatStep", ptr %10, i32 0, i32 0
  %12 = load ptr, ptr %11, align 8, !tbaa !79
  %13 = getelementptr inbounds i64, ptr %12, i64 0
  %14 = load i64, ptr %13, align 8, !tbaa !38
  %15 = load i32, ptr %5, align 4, !tbaa !46
  %16 = sext i32 %15 to i64
  %17 = mul i64 %14, %16
  %18 = getelementptr inbounds nuw i8, ptr %9, i64 %17
  %19 = load i32, ptr %6, align 4, !tbaa !46
  %20 = sext i32 %19 to i64
  %21 = getelementptr inbounds %"class.cv::Vec.13", ptr %18, i64 %20
  ret ptr %21
}

; Function Attrs: mustprogress nounwind uwtable
define linkonce_odr hidden noundef nonnull align 1 dereferenceable(3) ptr @_ZNSt6vectorIN2cv3VecIhLi3EEESaIS2_EEixEm(ptr noundef nonnull align 8 dereferenceable(24) %0, i64 noundef %1) #6 comdat align 2 {
  %3 = alloca ptr, align 8
  %4 = alloca i64, align 8
  store ptr %0, ptr %3, align 8, !tbaa !36
  store i64 %1, ptr %4, align 8, !tbaa !38
  %5 = load ptr, ptr %3, align 8
  %6 = getelementptr inbounds nuw %"struct.std::_Vector_base.9", ptr %5, i32 0, i32 0
  %7 = getelementptr inbounds nuw %"struct.std::_Vector_base<cv::Vec<unsigned char, 3>, std::allocator<cv::Vec<unsigned char, 3>>>::_Vector_impl_data", ptr %6, i32 0, i32 0
  %8 = load ptr, ptr %7, align 8, !tbaa !39
  %9 = load i64, ptr %4, align 8, !tbaa !38
  %10 = getelementptr inbounds nuw %"class.cv::Vec.13", ptr %8, i64 %9
  ret ptr %10
}

; Function Attrs: inlinehint mustprogress nounwind uwtable
define linkonce_odr hidden void @_ZN2cv11_InputArrayD2Ev(ptr noundef nonnull align 8 dereferenceable(24) %0) unnamed_addr #8 comdat align 2 {
  %2 = alloca ptr, align 8
  store ptr %0, ptr %2, align 8, !tbaa !55
  ret void
}

; Function Attrs: inlinehint mustprogress uwtable
define linkonce_odr hidden void @_ZN2cv11_InputArrayC2ERKNS_3MatE(ptr noundef nonnull align 8 dereferenceable(24) %0, ptr noundef nonnull align 8 dereferenceable(96) %1) unnamed_addr #4 comdat align 2 {
  %3 = alloca ptr, align 8
  %4 = alloca ptr, align 8
  store ptr %0, ptr %3, align 8, !tbaa !55
  store ptr %1, ptr %4, align 8, !tbaa !57
  %5 = load ptr, ptr %3, align 8
  %6 = getelementptr inbounds nuw %"class.cv::_InputArray", ptr %5, i32 0, i32 2
  call void @_ZN2cv5Size_IiEC2Ev(ptr noundef nonnull align 4 dereferenceable(8) %6)
  %7 = load ptr, ptr %4, align 8, !tbaa !57
  call void @_ZN2cv11_InputArray4initEiPKv(ptr noundef nonnull align 8 dereferenceable(24) %5, i32 noundef 16842752, ptr noundef %7)
  ret void
}

; Function Attrs: mustprogress nounwind uwtable
define linkonce_odr hidden noundef ptr @_ZNK2cv3PtrINS_2ml9StatModelEEptEv(ptr noundef nonnull align 8 dereferenceable(16) %0) #6 comdat align 2 {
  %2 = alloca ptr, align 8
  store ptr %0, ptr %2, align 8, !tbaa !148
  %3 = load ptr, ptr %2, align 8
  %4 = call noundef ptr @_ZNKSt12__shared_ptrIN2cv2ml9StatModelELN9__gnu_cxx12_Lock_policyE2EE3getEv(ptr noundef nonnull align 8 dereferenceable(16) %3) #3
  ret ptr %4
}

; Function Attrs: inlinehint mustprogress uwtable
define linkonce_odr hidden noundef nonnull align 4 dereferenceable(4) ptr @_ZN2cv3Mat2atIfEERT_i(ptr noundef nonnull align 8 dereferenceable(96) %0, i32 noundef %1) #4 comdat align 2 {
  %3 = alloca ptr, align 8
  %4 = alloca ptr, align 8
  %5 = alloca i32, align 4
  %6 = alloca i32, align 4
  %7 = alloca i32, align 4
  store ptr %0, ptr %4, align 8, !tbaa !57
  store i32 %1, ptr %5, align 4, !tbaa !46
  %8 = load ptr, ptr %4, align 8
  %9 = call noundef zeroext i1 @_ZNK2cv3Mat12isContinuousEv(ptr noundef nonnull align 8 dereferenceable(96) %8)
  br i1 %9, label %17, label %10

10:                                               ; preds = %2
  %11 = getelementptr inbounds nuw %"class.cv::Mat", ptr %8, i32 0, i32 10
  %12 = getelementptr inbounds nuw %"struct.cv::MatSize", ptr %11, i32 0, i32 0
  %13 = load ptr, ptr %12, align 8, !tbaa !77
  %14 = getelementptr inbounds i32, ptr %13, i64 0
  %15 = load i32, ptr %14, align 4, !tbaa !46
  %16 = icmp eq i32 %15, 1
  br i1 %16, label %17, label %23

17:                                               ; preds = %10, %2
  %18 = getelementptr inbounds nuw %"class.cv::Mat", ptr %8, i32 0, i32 4
  %19 = load ptr, ptr %18, align 8, !tbaa !78
  %20 = load i32, ptr %5, align 4, !tbaa !46
  %21 = sext i32 %20 to i64
  %22 = getelementptr inbounds float, ptr %19, i64 %21
  store ptr %22, ptr %3, align 8
  br label %67

23:                                               ; preds = %10
  %24 = getelementptr inbounds nuw %"class.cv::Mat", ptr %8, i32 0, i32 10
  %25 = getelementptr inbounds nuw %"struct.cv::MatSize", ptr %24, i32 0, i32 0
  %26 = load ptr, ptr %25, align 8, !tbaa !77
  %27 = getelementptr inbounds i32, ptr %26, i64 1
  %28 = load i32, ptr %27, align 4, !tbaa !46
  %29 = icmp eq i32 %28, 1
  br i1 %29, label %30, label %42

30:                                               ; preds = %23
  %31 = getelementptr inbounds nuw %"class.cv::Mat", ptr %8, i32 0, i32 4
  %32 = load ptr, ptr %31, align 8, !tbaa !78
  %33 = getelementptr inbounds nuw %"class.cv::Mat", ptr %8, i32 0, i32 11
  %34 = getelementptr inbounds nuw %"struct.cv::MatStep", ptr %33, i32 0, i32 0
  %35 = load ptr, ptr %34, align 8, !tbaa !79
  %36 = getelementptr inbounds i64, ptr %35, i64 0
  %37 = load i64, ptr %36, align 8, !tbaa !38
  %38 = load i32, ptr %5, align 4, !tbaa !46
  %39 = sext i32 %38 to i64
  %40 = mul i64 %37, %39
  %41 = getelementptr inbounds nuw i8, ptr %32, i64 %40
  store ptr %41, ptr %3, align 8
  br label %67

42:                                               ; preds = %23
  call void @llvm.lifetime.start.p0(i64 4, ptr %6) #3
  %43 = load i32, ptr %5, align 4, !tbaa !46
  %44 = getelementptr inbounds nuw %"class.cv::Mat", ptr %8, i32 0, i32 3
  %45 = load i32, ptr %44, align 4, !tbaa !80
  %46 = sdiv i32 %43, %45
  store i32 %46, ptr %6, align 4, !tbaa !46
  call void @llvm.lifetime.start.p0(i64 4, ptr %7) #3
  %47 = load i32, ptr %5, align 4, !tbaa !46
  %48 = load i32, ptr %6, align 4, !tbaa !46
  %49 = getelementptr inbounds nuw %"class.cv::Mat", ptr %8, i32 0, i32 3
  %50 = load i32, ptr %49, align 4, !tbaa !80
  %51 = mul nsw i32 %48, %50
  %52 = sub nsw i32 %47, %51
  store i32 %52, ptr %7, align 4, !tbaa !46
  %53 = getelementptr inbounds nuw %"class.cv::Mat", ptr %8, i32 0, i32 4
  %54 = load ptr, ptr %53, align 8, !tbaa !78
  %55 = getelementptr inbounds nuw %"class.cv::Mat", ptr %8, i32 0, i32 11
  %56 = getelementptr inbounds nuw %"struct.cv::MatStep", ptr %55, i32 0, i32 0
  %57 = load ptr, ptr %56, align 8, !tbaa !79
  %58 = getelementptr inbounds i64, ptr %57, i64 0
  %59 = load i64, ptr %58, align 8, !tbaa !38
  %60 = load i32, ptr %6, align 4, !tbaa !46
  %61 = sext i32 %60 to i64
  %62 = mul i64 %59, %61
  %63 = getelementptr inbounds nuw i8, ptr %54, i64 %62
  %64 = load i32, ptr %7, align 4, !tbaa !46
  %65 = sext i32 %64 to i64
  %66 = getelementptr inbounds float, ptr %63, i64 %65
  store ptr %66, ptr %3, align 8
  call void @llvm.lifetime.end.p0(i64 4, ptr %7) #3
  call void @llvm.lifetime.end.p0(i64 4, ptr %6) #3
  br label %67

67:                                               ; preds = %42, %30, %17
  %68 = load ptr, ptr %3, align 8
  ret ptr %68
}

; Function Attrs: mustprogress uwtable
define internal void @_ZL17predict_and_paintRKN2cv3PtrINS_2ml9StatModelEEERNS_3MatE(ptr noundef nonnull align 8 dereferenceable(16) %0, ptr noundef nonnull align 8 dereferenceable(96) %1) #7 personality ptr @__gxx_personality_v0 {
  %3 = alloca ptr, align 8
  %4 = alloca ptr, align 8
  %5 = alloca %"class.cv::Mat", align 8
  %6 = alloca i32, align 4
  %7 = alloca i32, align 4
  %8 = alloca i32, align 4
  %9 = alloca ptr, align 8
  %10 = alloca i32, align 4
  %11 = alloca i32, align 4
  %12 = alloca %"class.cv::_InputArray", align 8
  store ptr %0, ptr %3, align 8, !tbaa !148
  store ptr %1, ptr %4, align 8, !tbaa !57
  call void @llvm.lifetime.start.p0(i64 96, ptr %5) #3
  call void @_ZN2cv3MatC1Eiii(ptr noundef nonnull align 8 dereferenceable(96) %5, i32 noundef 1, i32 noundef 2, i32 noundef 5)
  call void @llvm.lifetime.start.p0(i64 4, ptr %6) #3
  store i32 0, ptr %6, align 4, !tbaa !46
  br label %13

13:                                               ; preds = %75, %2
  %14 = load i32, ptr %6, align 4, !tbaa !46
  %15 = load i32, ptr getelementptr inbounds nuw (%"class.cv::Mat", ptr @img, i32 0, i32 2), align 8, !tbaa !65
  %16 = icmp slt i32 %14, %15
  br i1 %16, label %18, label %17

17:                                               ; preds = %13
  store i32 2, ptr %7, align 4
  call void @llvm.lifetime.end.p0(i64 4, ptr %6) #3
  br label %78

18:                                               ; preds = %13
  call void @llvm.lifetime.start.p0(i64 4, ptr %8) #3
  store i32 0, ptr %8, align 4, !tbaa !46
  br label %19

19:                                               ; preds = %52, %18
  %20 = load i32, ptr %8, align 4, !tbaa !46
  %21 = load i32, ptr getelementptr inbounds nuw (%"class.cv::Mat", ptr @img, i32 0, i32 3), align 4, !tbaa !80
  %22 = icmp slt i32 %20, %21
  br i1 %22, label %24, label %23

23:                                               ; preds = %19
  store i32 5, ptr %7, align 4
  call void @llvm.lifetime.end.p0(i64 4, ptr %8) #3
  br label %74

24:                                               ; preds = %19
  %25 = load i32, ptr %8, align 4, !tbaa !46
  %26 = sitofp i32 %25 to float
  %27 = invoke noundef nonnull align 4 dereferenceable(4) ptr @_ZN2cv3Mat2atIfEERT_i(ptr noundef nonnull align 8 dereferenceable(96) %5, i32 noundef 0)
          to label %28 unwind label %55

28:                                               ; preds = %24
  store float %26, ptr %27, align 4, !tbaa !74
  %29 = load i32, ptr %6, align 4, !tbaa !46
  %30 = sitofp i32 %29 to float
  %31 = invoke noundef nonnull align 4 dereferenceable(4) ptr @_ZN2cv3Mat2atIfEERT_i(ptr noundef nonnull align 8 dereferenceable(96) %5, i32 noundef 1)
          to label %32 unwind label %55

32:                                               ; preds = %28
  store float %30, ptr %31, align 4, !tbaa !74
  call void @llvm.lifetime.start.p0(i64 4, ptr %11) #3
  %33 = load ptr, ptr %3, align 8, !tbaa !148
  %34 = call noundef ptr @_ZNK2cv3PtrINS_2ml9StatModelEEptEv(ptr noundef nonnull align 8 dereferenceable(16) %33) #3
  call void @llvm.lifetime.start.p0(i64 24, ptr %12) #3
  invoke void @_ZN2cv11_InputArrayC2ERKNS_3MatE(ptr noundef nonnull align 8 dereferenceable(24) %12, ptr noundef nonnull align 8 dereferenceable(96) %5)
          to label %35 unwind label %59

35:                                               ; preds = %32
  %36 = invoke noundef nonnull align 8 dereferenceable(24) ptr @_ZN2cv7noArrayEv()
          to label %37 unwind label %63

37:                                               ; preds = %35
  %38 = load ptr, ptr %34, align 8, !tbaa !52
  %39 = getelementptr inbounds ptr, ptr %38, i64 14
  %40 = load ptr, ptr %39, align 8
  %41 = invoke noundef float %40(ptr noundef nonnull align 8 dereferenceable(8) %34, ptr noundef nonnull align 8 dereferenceable(24) %12, ptr noundef nonnull align 8 dereferenceable(24) %36, i32 noundef 0)
          to label %42 unwind label %63

42:                                               ; preds = %37
  %43 = fptosi float %41 to i32
  call void @_ZN2cv11_InputArrayD2Ev(ptr noundef nonnull align 8 dereferenceable(24) %12) #3
  call void @llvm.lifetime.end.p0(i64 24, ptr %12) #3
  store i32 %43, ptr %11, align 4, !tbaa !46
  %44 = load i32, ptr %11, align 4, !tbaa !46
  %45 = sext i32 %44 to i64
  %46 = call noundef nonnull align 1 dereferenceable(3) ptr @_ZNSt6vectorIN2cv3VecIhLi3EEESaIS2_EEixEm(ptr noundef nonnull align 8 dereferenceable(24) @classColors, i64 noundef %45) #3
  %47 = load ptr, ptr %4, align 8, !tbaa !57
  %48 = load i32, ptr %6, align 4, !tbaa !46
  %49 = load i32, ptr %8, align 4, !tbaa !46
  %50 = invoke noundef nonnull align 1 dereferenceable(3) ptr @_ZN2cv3Mat2atINS_3VecIhLi3EEEEERT_ii(ptr noundef nonnull align 8 dereferenceable(96) %47, i32 noundef %48, i32 noundef %49)
          to label %51 unwind label %68

51:                                               ; preds = %42
  call void @llvm.memcpy.p0.p0.i64(ptr align 1 %50, ptr align 1 %46, i64 3, i1 false)
  call void @llvm.lifetime.end.p0(i64 4, ptr %11) #3
  br label %52

52:                                               ; preds = %51
  %53 = load i32, ptr %8, align 4, !tbaa !46
  %54 = add nsw i32 %53, 5
  store i32 %54, ptr %8, align 4, !tbaa !46
  br label %19, !llvm.loop !150

55:                                               ; preds = %28, %24
  %56 = landingpad { ptr, i32 }
          cleanup
  %57 = extractvalue { ptr, i32 } %56, 0
  store ptr %57, ptr %9, align 8
  %58 = extractvalue { ptr, i32 } %56, 1
  store i32 %58, ptr %10, align 4
  br label %73

59:                                               ; preds = %32
  %60 = landingpad { ptr, i32 }
          cleanup
  %61 = extractvalue { ptr, i32 } %60, 0
  store ptr %61, ptr %9, align 8
  %62 = extractvalue { ptr, i32 } %60, 1
  store i32 %62, ptr %10, align 4
  br label %67

63:                                               ; preds = %37, %35
  %64 = landingpad { ptr, i32 }
          cleanup
  %65 = extractvalue { ptr, i32 } %64, 0
  store ptr %65, ptr %9, align 8
  %66 = extractvalue { ptr, i32 } %64, 1
  store i32 %66, ptr %10, align 4
  call void @_ZN2cv11_InputArrayD2Ev(ptr noundef nonnull align 8 dereferenceable(24) %12) #3
  br label %67

67:                                               ; preds = %63, %59
  call void @llvm.lifetime.end.p0(i64 24, ptr %12) #3
  br label %72

68:                                               ; preds = %42
  %69 = landingpad { ptr, i32 }
          cleanup
  %70 = extractvalue { ptr, i32 } %69, 0
  store ptr %70, ptr %9, align 8
  %71 = extractvalue { ptr, i32 } %69, 1
  store i32 %71, ptr %10, align 4
  br label %72

72:                                               ; preds = %68, %67
  call void @llvm.lifetime.end.p0(i64 4, ptr %11) #3
  br label %73

73:                                               ; preds = %72, %55
  call void @llvm.lifetime.end.p0(i64 4, ptr %8) #3
  call void @llvm.lifetime.end.p0(i64 4, ptr %6) #3
  call void @_ZN2cv3MatD1Ev(ptr noundef nonnull align 8 dereferenceable(96) %5) #3
  call void @llvm.lifetime.end.p0(i64 96, ptr %5) #3
  br label %79

74:                                               ; preds = %23
  br label %75

75:                                               ; preds = %74
  %76 = load i32, ptr %6, align 4, !tbaa !46
  %77 = add nsw i32 %76, 5
  store i32 %77, ptr %6, align 4, !tbaa !46
  br label %13, !llvm.loop !151

78:                                               ; preds = %17
  call void @_ZN2cv3MatD1Ev(ptr noundef nonnull align 8 dereferenceable(96) %5) #3
  call void @llvm.lifetime.end.p0(i64 96, ptr %5) #3
  ret void

79:                                               ; preds = %73
  %80 = load ptr, ptr %9, align 8
  %81 = load i32, ptr %10, align 4
  %82 = insertvalue { ptr, i32 } poison, ptr %80, 0
  %83 = insertvalue { ptr, i32 } %82, i32 %81, 1
  resume { ptr, i32 } %83
}