; Function Attrs: mustprogress norecurse uwtable
define internal fastcc void @_ZL17predict_and_paintRKN2cv3PtrINS_2ml9StatModelEEERNS_3MatE(ptr noundef nonnull readonly align 8 captures(none) dereferenceable(16) %0) unnamed_addr #5 personality ptr @__gxx_personality_v0 {
  %2 = alloca %"class.cv::Mat", align 8
  %3 = alloca %"class.cv::_InputArray", align 8
  call void @llvm.lifetime.start.p0(i64 96, ptr nonnull %2) #22
  call void @_ZN2cv3MatC1Eiii(ptr noundef nonnull align 8 dereferenceable(96) %2, i32 noundef 1, i32 noundef 2, i32 noundef 5)
  %4 = load i32, ptr getelementptr inbounds nuw (i8, ptr @img, i64 8), align 8, !tbaa !108
  %5 = icmp sgt i32 %4, 0
  br i1 %5, label %.preheader.lr.ph, label %._crit_edge5

.preheader.lr.ph:                                 ; preds = %1
  %6 = getelementptr inbounds nuw i8, ptr %2, i64 16
  %7 = getelementptr inbounds nuw i8, ptr %2, i64 64
  %8 = getelementptr inbounds nuw i8, ptr %2, i64 12
  %9 = getelementptr inbounds nuw i8, ptr %2, i64 72
  %10 = getelementptr inbounds nuw i8, ptr %3, i64 16
  %11 = getelementptr inbounds nuw i8, ptr %3, i64 20
  %12 = getelementptr inbounds nuw i8, ptr %3, i64 8
  %13 = load i32, ptr getelementptr inbounds nuw (i8, ptr @img, i64 12), align 4, !tbaa !97
  %14 = icmp sgt i32 %13, 0
  br i1 %14, label %.preheader, label %._crit_edge5

.preheader:                                       ; preds = %.preheader.lr.ph, %._crit_edge
  %15 = phi i32 [ %20, %._crit_edge ], [ %4, %.preheader.lr.ph ]
  %16 = phi i32 [ %21, %._crit_edge ], [ %13, %.preheader.lr.ph ]
  %indvars.iv8 = phi i64 [ %indvars.iv.next9, %._crit_edge ], [ 0, %.preheader.lr.ph ]
  %17 = icmp sgt i32 %16, 0
  br i1 %17, label %.lr.ph, label %._crit_edge

.lr.ph:                                           ; preds = %.preheader
  %18 = trunc nuw nsw i64 %indvars.iv8 to i32
  %19 = uitofp nneg i32 %18 to float
  br label %24

._crit_edge5:                                     ; preds = %._crit_edge, %.preheader.lr.ph, %1
  call void @_ZN2cv3MatD1Ev(ptr noundef nonnull align 8 dereferenceable(96) %2) #22
  call void @llvm.lifetime.end.p0(i64 96, ptr nonnull %2) #22
  ret void

._crit_edge.loopexit:                             ; preds = %71
  %.pre = load i32, ptr getelementptr inbounds nuw (i8, ptr @img, i64 8), align 8, !tbaa !108
  br label %._crit_edge

._crit_edge:                                      ; preds = %._crit_edge.loopexit, %.preheader
  %20 = phi i32 [ %.pre, %._crit_edge.loopexit ], [ %15, %.preheader ]
  %21 = phi i32 [ %82, %._crit_edge.loopexit ], [ %16, %.preheader ]
  %indvars.iv.next9 = add nuw nsw i64 %indvars.iv8, 5
  %22 = trunc nuw i64 %indvars.iv.next9 to i32
  %23 = icmp sgt i32 %20, %22
  br i1 %23, label %.preheader, label %._crit_edge5, !llvm.loop !157

24:                                               ; preds = %.lr.ph, %71
  %indvars.iv = phi i64 [ 0, %.lr.ph ], [ %indvars.iv.next, %71 ]
  %25 = load i32, ptr %2, align 8, !tbaa !94
  %26 = and i32 %25, 16384
  %.not.i = icmp eq i32 %26, 0
  br i1 %.not.i, label %27, label %_ZN2cv3Mat2atIfEERT_i.exit

27:                                               ; preds = %24
  %28 = load ptr, ptr %7, align 8, !tbaa !95
  %29 = load i32, ptr %28, align 4, !tbaa !57
  %30 = icmp eq i32 %29, 1
  %31 = load ptr, ptr %6, align 8
  %32 = trunc nuw nsw i64 %indvars.iv to i32
  %33 = uitofp nneg i32 %32 to float
  store float %33, ptr %31, align 4, !tbaa !109
  br i1 %30, label %.thread, label %39

_ZN2cv3Mat2atIfEERT_i.exit:                       ; preds = %24
  %34 = load ptr, ptr %6, align 8, !tbaa !87
  %35 = trunc nuw nsw i64 %indvars.iv to i32
  %36 = uitofp nneg i32 %35 to float
  store float %36, ptr %34, align 4, !tbaa !109
  br label %.thread

.thread:                                          ; preds = %27, %_ZN2cv3Mat2atIfEERT_i.exit
  %37 = load ptr, ptr %6, align 8, !tbaa !87
  %38 = getelementptr inbounds nuw i8, ptr %37, i64 4
  br label %63

39:                                               ; preds = %27
  %40 = getelementptr inbounds nuw i8, ptr %28, i64 4
  %41 = load i32, ptr %40, align 4, !tbaa !57
  %42 = icmp eq i32 %41, 1
  br i1 %42, label %43, label %48

43:                                               ; preds = %39
  %44 = load ptr, ptr %6, align 8, !tbaa !87
  %45 = load ptr, ptr %9, align 8, !tbaa !96
  %46 = load i64, ptr %45, align 8, !tbaa !73
  %47 = getelementptr inbounds nuw i8, ptr %44, i64 %46
  br label %63

48:                                               ; preds = %39
  %49 = load i32, ptr %8, align 4, !tbaa !97
  %.fr = freeze i32 %49
  %50 = add i32 %.fr, 1
  %51 = icmp ult i32 %50, 3
  %52 = select i1 %51, i32 %.fr, i32 0
  %53 = mul nsw i32 %52, %.fr
  %54 = sub nsw i32 1, %53
  %55 = load ptr, ptr %6, align 8, !tbaa !87
  %56 = load ptr, ptr %9, align 8, !tbaa !96
  %57 = load i64, ptr %56, align 8, !tbaa !73
  %58 = sext i32 %52 to i64
  %59 = mul i64 %57, %58
  %60 = getelementptr inbounds nuw i8, ptr %55, i64 %59
  %61 = sext i32 %54 to i64
  %62 = getelementptr inbounds float, ptr %60, i64 %61
  br label %63

63:                                               ; preds = %.thread, %43, %48
  %.0.i19 = phi ptr [ %38, %.thread ], [ %47, %43 ], [ %62, %48 ]
  store float %19, ptr %.0.i19, align 4, !tbaa !109
  %64 = load ptr, ptr %0, align 8, !tbaa !70
  call void @llvm.lifetime.start.p0(i64 24, ptr nonnull %3) #22
  store i32 0, ptr %10, align 8, !tbaa !48
  store i32 0, ptr %11, align 4, !tbaa !50
  store i32 16842752, ptr %3, align 8, !tbaa !51
  store ptr %2, ptr %12, align 8, !tbaa !53
  %65 = invoke noundef nonnull align 8 dereferenceable(24) ptr @_ZN2cv7noArrayEv()
          to label %66 unwind label %85

66:                                               ; preds = %63
  %67 = load ptr, ptr %64, align 8, !tbaa !16
  %68 = getelementptr inbounds nuw i8, ptr %67, i64 112
  %69 = load ptr, ptr %68, align 8
  %70 = invoke noundef float %69(ptr noundef nonnull align 8 dereferenceable(8) %64, ptr noundef nonnull align 8 dereferenceable(24) %3, ptr noundef nonnull align 8 dereferenceable(24) %65, i32 noundef 0)
          to label %71 unwind label %85

71:                                               ; preds = %66
  %72 = fptosi float %70 to i32
  call void @llvm.lifetime.end.p0(i64 24, ptr nonnull %3) #22
  %73 = sext i32 %72 to i64
  %74 = load ptr, ptr @classColors, align 8, !tbaa !13
  %75 = getelementptr inbounds nuw %"class.cv::Vec.13", ptr %74, i64 %73
  %76 = load ptr, ptr getelementptr inbounds nuw (i8, ptr @imgDst, i64 16), align 8, !tbaa !87
  %77 = load ptr, ptr getelementptr inbounds nuw (i8, ptr @imgDst, i64 72), align 8, !tbaa !96
  %78 = load i64, ptr %77, align 8, !tbaa !73
  %79 = mul i64 %78, %indvars.iv8
  %80 = getelementptr inbounds nuw i8, ptr %76, i64 %79
  %81 = getelementptr inbounds nuw %"class.cv::Vec.13", ptr %80, i64 %indvars.iv
  call void @llvm.memcpy.p0.p0.i64(ptr noundef nonnull align 1 dereferenceable(3) %81, ptr noundef nonnull align 1 dereferenceable(3) %75, i64 3, i1 false)
  %indvars.iv.next = add nuw nsw i64 %indvars.iv, 5
  %82 = load i32, ptr getelementptr inbounds nuw (i8, ptr @img, i64 12), align 4, !tbaa !97
  %83 = trunc nuw i64 %indvars.iv.next to i32
  %84 = icmp sgt i32 %82, %83
  br i1 %84, label %24, label %._crit_edge.loopexit, !llvm.loop !158

85:                                               ; preds = %66, %63
  %86 = landingpad { ptr, i32 }
          cleanup
  call void @llvm.lifetime.end.p0(i64 24, ptr nonnull %3) #22
  call void @_ZN2cv3MatD1Ev(ptr noundef nonnull align 8 dereferenceable(96) %2) #22
  call void @llvm.lifetime.end.p0(i64 96, ptr nonnull %2) #22
  resume { ptr, i32 } %86
}